target datalayout = "e-m:e-p270:32:32-p271:32:32-p272:64:64-i64:64-i128:128-f80:128-n8:16:32:64-S128"
target triple = "x86_64-pc-linux-gnu"

@_ZN6icu_7718UStringEnumerationC1EP12UEnumeration = unnamed_addr alias void (ptr, ptr), ptr @_ZN6icu_7718UStringEnumerationC2EP12UEnumeration

; Function Attrs: inlinehint mustprogress nounwind uwtable
define internal noundef signext i8 @_ZL9U_FAILURE10UErrorCode(i32 noundef %0) #1 {
  %2 = alloca i32, align 4
  store i32 %0, ptr %2, align 4, !tbaa !26
  %3 = load i32, ptr %2, align 4, !tbaa !26
  %4 = icmp sgt i32 %3, 0
  %5 = zext i1 %4 to i8
  ret i8 %5
}

; Function Attrs: mustprogress uwtable
define noundef ptr @_ZN6icu_7718UStringEnumeration16fromUEnumerationEP12UEnumerationR10UErrorCode(ptr noundef %0, ptr noundef nonnull align 4 dereferenceable(4) %1) #0 align 2 personality ptr @__gxx_personality_v0 {
  %3 = alloca ptr, align 8
  %4 = alloca ptr, align 8
  %5 = alloca ptr, align 8
  %6 = alloca ptr, align 8
  %7 = alloca ptr, align 8
  %8 = alloca i1, align 1
  %9 = alloca ptr, align 8
  %10 = alloca i32, align 4
  %11 = alloca i32, align 4
  store ptr %0, ptr %4, align 8, !tbaa !38
  store ptr %1, ptr %5, align 8, !tbaa !25
  %12 = load ptr, ptr %5, align 8, !tbaa !25
  %13 = load i32, ptr %12, align 4, !tbaa !26
  %14 = call noundef signext i8 @_ZL9U_FAILURE10UErrorCode(i32 noundef %13)
  %15 = icmp ne i8 %14, 0
  br i1 %15, label %16, label %18

16:                                               ; preds = %2
  %17 = load ptr, ptr %4, align 8, !tbaa !38
  call void @uenum_close_77(ptr noundef %17)
  store ptr null, ptr %3, align 8
  br label %42

18:                                               ; preds = %2
  call void @llvm.lifetime.start.p0(i64 8, ptr %6) #12
  %19 = call noundef ptr @_ZN6icu_777UMemorynwEm(i64 noundef 128) #12
  %20 = icmp eq ptr %19, null
  store i1 false, ptr %8, align 1
  br i1 %20, label %24, label %21

21:                                               ; preds = %18
  store ptr %19, ptr %7, align 8
  store i1 true, ptr %8, align 1
  %22 = load ptr, ptr %4, align 8, !tbaa !38
  invoke void @_ZN6icu_7718UStringEnumerationC1EP12UEnumeration(ptr noundef nonnull align 8 dereferenceable(128) %19, ptr noundef %22)
          to label %23 unwind label %31

23:                                               ; preds = %21
  br label %24

24:                                               ; preds = %23, %18
  %25 = phi ptr [ %19, %23 ], [ null, %18 ]
  store ptr %25, ptr %6, align 8, !tbaa !40
  %26 = load ptr, ptr %6, align 8, !tbaa !40
  %27 = icmp eq ptr %26, null
  br i1 %27, label %28, label %39

28:                                               ; preds = %24
  %29 = load ptr, ptr %5, align 8, !tbaa !25
  store i32 7, ptr %29, align 4, !tbaa !26
  %30 = load ptr, ptr %4, align 8, !tbaa !38
  call void @uenum_close_77(ptr noundef %30)
  store ptr null, ptr %3, align 8
  store i32 1, ptr %11, align 4
  br label %41

31:                                               ; preds = %21
  %32 = landingpad { ptr, i32 }
          cleanup
  %33 = extractvalue { ptr, i32 } %32, 0
  store ptr %33, ptr %9, align 8
  %34 = extractvalue { ptr, i32 } %32, 1
  store i32 %34, ptr %10, align 4
  %35 = load i1, ptr %8, align 1
  br i1 %35, label %36, label %38

36:                                               ; preds = %31
  %37 = load ptr, ptr %7, align 8
  call void @_ZN6icu_777UMemorydlEPv(ptr noundef %37) #12
  br label %38

38:                                               ; preds = %36, %31
  call void @llvm.lifetime.end.p0(i64 8, ptr %6) #12
  br label %44

39:                                               ; preds = %24
  %40 = load ptr, ptr %6, align 8, !tbaa !40
  store ptr %40, ptr %3, align 8
  store i32 1, ptr %11, align 4
  br label %41

41:                                               ; preds = %39, %28
  call void @llvm.lifetime.end.p0(i64 8, ptr %6) #12
  br label %42

42:                                               ; preds = %41, %16
  %43 = load ptr, ptr %3, align 8
  ret ptr %43

44:                                               ; preds = %38
  %45 = load ptr, ptr %9, align 8
  %46 = load i32, ptr %10, align 4
  %47 = insertvalue { ptr, i32 } poison, ptr %45, 0
  %48 = insertvalue { ptr, i32 } %47, i32 %46, 1
  resume { ptr, i32 } %48
}