; Function Attrs: mustprogress uwtable
define noundef ptr @_ZN6icu_7718UStringEnumeration16fromUEnumerationEP12UEnumerationR10UErrorCode(ptr noundef %0, ptr noundef nonnull align 4 captures(none) dereferenceable(4) %1) local_unnamed_addr #9 align 2 personality ptr @__gxx_personality_v0 {
  %3 = load i32, ptr %1, align 4, !tbaa !17
  %4 = icmp slt i32 %3, 1
  br i1 %4, label %5, label %.sink.split

5:                                                ; preds = %2
  %6 = tail call noundef ptr @_ZN6icu_777UMemorynwEm(i64 noundef 128) #18
  %7 = icmp eq ptr %6, null
  br i1 %7, label %9, label %8

8:                                                ; preds = %5
  invoke void @_ZN6icu_7718UStringEnumerationC1EP12UEnumeration(ptr noundef nonnull align 8 dereferenceable(128) %6, ptr noundef %0)
          to label %12 unwind label %10

9:                                                ; preds = %5
  store i32 7, ptr %1, align 4, !tbaa !17
  br label %.sink.split

10:                                               ; preds = %8
  %11 = landingpad { ptr, i32 }
          cleanup
  tail call void @_ZN6icu_777UMemorydlEPv(ptr noundef nonnull %6) #18
  resume { ptr, i32 } %11

.sink.split:                                      ; preds = %2, %9
  tail call void @uenum_close_77(ptr noundef %0)
  br label %12

12:                                               ; preds = %.sink.split, %8
  %.0 = phi ptr [ %6, %8 ], [ null, %.sink.split ]
  ret ptr %.0
}